target datalayout = "e-m:e-p270:32:32-p271:32:32-p272:64:64-i64:64-i128:128-f80:128-n8:16:32:64-S128"
target triple = "x86_64-pc-linux-gnu"

; Function Attrs: mustprogress nounwind uwtable
define linkonce_odr hidden noundef ptr @_ZN6Thread20current_or_null_safeEv() #1 comdat align 2 {
  %1 = alloca ptr, align 8
  %2 = call noundef zeroext i1 @_ZN18ThreadLocalStorage14is_initializedEv()
  br i1 %2, label %3, label %5

3:                                                ; preds = %0
  %4 = call noundef ptr @_ZN18ThreadLocalStorage6threadEv()
  store ptr %4, ptr %1, align 8
  br label %6

5:                                                ; preds = %0
  store ptr null, ptr %1, align 8
  br label %6

6:                                                ; preds = %5, %3
  %7 = load ptr, ptr %1, align 8
  ret ptr %7
}

; Function Attrs: mustprogress nounwind uwtable
define hidden void @_ZN16JfrEmergencyDump18on_vm_error_reportEP12outputStreamPKc(ptr noundef %0, ptr noundef %1) #1 align 2 {
  %3 = alloca ptr, align 8
  %4 = alloca ptr, align 8
  %5 = alloca ptr, align 8
  store ptr %0, ptr %3, align 8
  store ptr %1, ptr %4, align 8
  %6 = call noundef ptr @_ZN6Thread20current_or_null_safeEv()
  store ptr %6, ptr %5, align 8
  %7 = load ptr, ptr %5, align 8
  %8 = icmp ne ptr %7, null
  br i1 %8, label %9, label %13

9:                                                ; preds = %2
  %10 = load ptr, ptr %3, align 8
  %11 = call noundef zeroext i1 @_ZL24open_emergency_dump_filev()
  %12 = load ptr, ptr %4, align 8
  call void @_ZL6reportP12outputStreambPKc(ptr noundef %10, i1 noundef zeroext %11, ptr noundef %12)
  br label %20

13:                                               ; preds = %2
  %14 = load ptr, ptr %4, align 8
  %15 = icmp ne ptr %14, null
  br i1 %15, label %16, label %19

16:                                               ; preds = %13
  %17 = load ptr, ptr %3, align 8
  %18 = load ptr, ptr %4, align 8
  call void @_ZL6reportP12outputStreambPKc(ptr noundef %17, i1 noundef zeroext false, ptr noundef %18)
  br label %19

19:                                               ; preds = %16, %13
  br label %20

20:                                               ; preds = %19, %9
  ret void
}