; Function Attrs: mustprogress nounwind uwtable
define hidden void @_ZN16JfrEmergencyDump18on_vm_error_reportEP12outputStreamPKc(ptr noundef %0, ptr noundef %1) local_unnamed_addr #0 align 2 {
  %3 = tail call noundef zeroext i1 @_ZN18ThreadLocalStorage14is_initializedEv() #16
  br i1 %3, label %_ZN6Thread20current_or_null_safeEv.exit, label %_ZN6Thread20current_or_null_safeEv.exit.thread

_ZN6Thread20current_or_null_safeEv.exit:          ; preds = %2
  %4 = tail call noundef ptr @_ZN18ThreadLocalStorage6threadEv() #16
  %.not = icmp eq ptr %4, null
  br i1 %.not, label %_ZN6Thread20current_or_null_safeEv.exit.thread, label %5

5:                                                ; preds = %_ZN6Thread20current_or_null_safeEv.exit
  %6 = tail call fastcc noundef zeroext i1 @_ZL24open_emergency_dump_filev()
  tail call fastcc void @_ZL6reportP12outputStreambPKc(ptr noundef %0, i1 noundef zeroext %6, ptr noundef %1)
  br label %8

_ZN6Thread20current_or_null_safeEv.exit.thread:   ; preds = %2, %_ZN6Thread20current_or_null_safeEv.exit
  %.not6 = icmp eq ptr %1, null
  br i1 %.not6, label %8, label %_ZL6reportP12outputStreambPKc.exit

_ZL6reportP12outputStreambPKc.exit:               ; preds = %_ZN6Thread20current_or_null_safeEv.exit.thread
  tail call void @_ZN12outputStream9print_rawEPKcm(ptr noundef nonnull align 8 dereferenceable(56) %0, ptr noundef nonnull @.str.15, i64 noundef 61) #16
  %7 = tail call i64 @strlen(ptr noundef nonnull dereferenceable(1) %1) #17
  tail call void @_ZN12outputStream9print_rawEPKcm(ptr noundef nonnull align 8 dereferenceable(56) %0, ptr noundef nonnull %1, i64 noundef %7) #16
  tail call void @_ZN12outputStream2crEv(ptr noundef nonnull align 8 dereferenceable(56) %0) #16
  tail call void @_ZN12outputStream9print_rawEPKcm(ptr noundef nonnull align 8 dereferenceable(56) %0, ptr noundef nonnull @.str.14, i64 noundef 1) #16
  tail call void @_ZN12outputStream2crEv(ptr noundef nonnull align 8 dereferenceable(56) %0) #16
  br label %8

8:                                                ; preds = %_ZN6Thread20current_or_null_safeEv.exit.thread, %_ZL6reportP12outputStreambPKc.exit, %5
  ret void
}